; Function Attrs: mustprogress nounwind uwtable
define hidden void @_ZN25G1CollectionCandidateListC2Ev(ptr nocapture noundef nonnull writeonly align 8 dereferenceable(24) %0) unnamed_addr #0 align 2 {
  %2 = tail call noundef ptr @_ZN27GrowableArrayCHeapAllocator8allocateEii8MEMFLAGS(i32 noundef 2, i32 noundef 24, i8 noundef zeroext 5) #17
  store i32 0, ptr %0, align 8
  %3 = getelementptr inbounds i8, ptr %0, i64 4
  store i32 2, ptr %3, align 4
  %4 = getelementptr inbounds i8, ptr %0, i64 8
  store ptr %2, ptr %4, align 8
  br label %.lr.ph.i.i

.lr.ph.i.i:                                       ; preds = %.lr.ph.i.i, %1
  %indvars.iv.i.i = phi i64 [ 0, %1 ], [ %indvars.iv.next.i.i, %.lr.ph.i.i ]
  %5 = getelementptr inbounds %struct.G1CollectionSetCandidateInfo, ptr %2, i64 %indvars.iv.i.i
  tail call void @llvm.memset.p0.i64(ptr noundef nonnull align 8 dereferenceable(20) %5, i8 0, i64 20, i1 false)
  %indvars.iv.next.i.i = add nuw nsw i64 %indvars.iv.i.i, 1
  %exitcond.not.i.i = icmp eq i64 %indvars.iv.next.i.i, 2
  br i1 %exitcond.not.i.i, label %_ZN13GrowableArrayI28G1CollectionSetCandidateInfoEC2Ei8MEMFLAGS.exit, label %.lr.ph.i.i, !llvm.loop !6

_ZN13GrowableArrayI28G1CollectionSetCandidateInfoEC2Ei8MEMFLAGS.exit: ; preds = %.lr.ph.i.i
  %6 = getelementptr inbounds i8, ptr %0, i64 16
  store i64 11, ptr %6, align 8
  ret void
}